target datalayout = "e-m:e-p270:32:32-p271:32:32-p272:64:64-i64:64-i128:128-f80:128-n8:16:32:64-S128"
target triple = "x86_64-pc-linux-gnu"

%"struct.cv::Hamming" = type { i8 }

; Function Attrs: mustprogress uwtable
define hidden noundef zeroext i1 @_ZN2cv17QRCodeDecoderImpl17correctFormatInfoERt(ptr noundef nonnull align 8 dereferenceable(72) %0, ptr noundef nonnull align 2 dereferenceable(2) %1) #2 align 2 {
  %3 = alloca i1, align 1
  %4 = alloca ptr, align 8
  %5 = alloca ptr, align 8
  %6 = alloca %"struct.cv::Hamming", align 1
  %7 = alloca i32, align 4
  %8 = alloca i32, align 4
  %9 = alloca i32, align 4
  store ptr %0, ptr %4, align 8, !tbaa !251
  store ptr %1, ptr %5, align 8, !tbaa !261
  call void @llvm.lifetime.start.p0(i64 1, ptr %6) #21
  call void @llvm.lifetime.start.p0(i64 4, ptr %7) #21
  store i32 0, ptr %7, align 4, !tbaa !29
  br label %10

10:                                               ; preds = %35, %2
  %11 = load i32, ptr %7, align 4, !tbaa !29
  %12 = icmp slt i32 %11, 32
  br i1 %12, label %14, label %13

13:                                               ; preds = %10
  store i32 2, ptr %8, align 4
  br label %38

14:                                               ; preds = %10
  call void @llvm.lifetime.start.p0(i64 4, ptr %9) #21
  %15 = load i32, ptr %7, align 4, !tbaa !29
  %16 = sext i32 %15 to i64
  %17 = getelementptr inbounds [32 x i16], ptr @_ZN2cvL13formatInfoLUTE, i64 0, i64 %16
  %18 = load ptr, ptr %5, align 8, !tbaa !261
  %19 = call noundef i32 @_ZNK2cv7HammingclEPKhS2_i(ptr noundef nonnull align 1 dereferenceable(1) %6, ptr noundef %17, ptr noundef %18, i32 noundef 2)
  store i32 %19, ptr %9, align 4, !tbaa !29
  %20 = load i32, ptr %9, align 4, !tbaa !29
  %21 = icmp sle i32 %20, 3
  br i1 %21, label %22, label %31

22:                                               ; preds = %14
  %23 = load i32, ptr %7, align 4, !tbaa !29
  %24 = sext i32 %23 to i64
  %25 = getelementptr inbounds [32 x i16], ptr @_ZN2cvL13formatInfoLUTE, i64 0, i64 %24
  %26 = load i16, ptr %25, align 2, !tbaa !118
  %27 = zext i16 %26 to i32
  %28 = xor i32 %27, 21522
  %29 = trunc i32 %28 to i16
  %30 = load ptr, ptr %5, align 8, !tbaa !261
  store i16 %29, ptr %30, align 2, !tbaa !118
  store i1 true, ptr %3, align 1
  store i32 1, ptr %8, align 4
  br label %32

31:                                               ; preds = %14
  store i32 0, ptr %8, align 4
  br label %32

32:                                               ; preds = %31, %22
  call void @llvm.lifetime.end.p0(i64 4, ptr %9) #21
  %33 = load i32, ptr %8, align 4
  switch i32 %33, label %38 [
    i32 0, label %34
  ]

34:                                               ; preds = %32
  br label %35

35:                                               ; preds = %34
  %36 = load i32, ptr %7, align 4, !tbaa !29
  %37 = add nsw i32 %36, 1
  store i32 %37, ptr %7, align 4, !tbaa !29
  br label %10, !llvm.loop !263

38:                                               ; preds = %32, %13
  call void @llvm.lifetime.end.p0(i64 4, ptr %7) #21
  %39 = load i32, ptr %8, align 4
  switch i32 %39, label %41 [
    i32 2, label %40
  ]

40:                                               ; preds = %38
  store i1 false, ptr %3, align 1
  store i32 1, ptr %8, align 4
  br label %41

41:                                               ; preds = %40, %38
  call void @llvm.lifetime.end.p0(i64 1, ptr %6) #21
  %42 = load i1, ptr %3, align 1
  ret i1 %42
}