; Function Attrs: mustprogress uwtable
define hidden noundef zeroext i1 @_ZN2cv17QRCodeDecoderImpl17correctFormatInfoERt(ptr noundef nonnull readnone align 8 captures(none) dereferenceable(72) %0, ptr noundef nonnull align 2 dereferenceable(2) %1) local_unnamed_addr #4 align 2 {
  %3 = alloca %"struct.cv::Hamming", align 1
  call void @llvm.lifetime.start.p0(i64 1, ptr nonnull %3) #28
  br label %.critedge

4:                                                ; preds = %.critedge
  %indvars.iv.next = add nuw nsw i64 %indvars.iv, 1
  %exitcond.not = icmp eq i64 %indvars.iv.next, 32
  br i1 %exitcond.not, label %.critedge14, label %.critedge, !llvm.loop !233

.critedge:                                        ; preds = %2, %4
  %indvars.iv = phi i64 [ 0, %2 ], [ %indvars.iv.next, %4 ]
  %5 = getelementptr inbounds nuw [32 x i16], ptr @_ZN2cvL13formatInfoLUTE, i64 0, i64 %indvars.iv
  %6 = call noundef i32 @_ZNK2cv7HammingclEPKhS2_i(ptr noundef nonnull align 1 dereferenceable(1) %3, ptr noundef nonnull %5, ptr noundef nonnull %1, i32 noundef 2)
  %7 = icmp slt i32 %6, 4
  br i1 %7, label %8, label %4

8:                                                ; preds = %.critedge
  %9 = load i16, ptr %5, align 2, !tbaa !95
  %10 = xor i16 %9, 21522
  store i16 %10, ptr %1, align 2, !tbaa !95
  br label %.critedge14

.critedge14:                                      ; preds = %4, %8
  call void @llvm.lifetime.end.p0(i64 1, ptr nonnull %3) #28
  ret i1 %7
}